target datalayout = "e-m:e-p270:32:32-p271:32:32-p272:64:64-i64:64-i128:128-f80:128-n8:16:32:64-S128"
target triple = "x86_64-pc-linux-gnu"

%struct.pointf_s = type { double, double }
%struct.path = type { %struct.port, %struct.port, i64, ptr, ptr }
%struct.port = type { %struct.pointf_s, double, ptr, i8, i8, i8, i8, i8, i8, ptr }
%struct.boxf = type { %struct.pointf_s, %struct.pointf_s }

@stderr = external global ptr, align 8
@.str.13 = private unnamed_addr constant [12 x i8] c"%zu boxes:\0A\00", align 1
@.str.14 = private unnamed_addr constant [32 x i8] c"%zu (%.5g, %.5g), (%.5g, %.5g)\0A\00", align 1
@.str.15 = private unnamed_addr constant [51 x i8] c"start port: (%.5g, %.5g), tangent angle: %.5g, %s\0A\00", align 1
@.str.16 = private unnamed_addr constant [12 x i8] c"constrained\00", align 1
@.str.17 = private unnamed_addr constant [16 x i8] c"not constrained\00", align 1
@.str.18 = private unnamed_addr constant [49 x i8] c"end port: (%.5g, %.5g), tangent angle: %.5g, %s\0A\00", align 1

; Function Attrs: nounwind uwtable
define internal void @printpath(ptr noundef %0) #0 {
  %2 = alloca ptr, align 8
  %3 = alloca i64, align 8
  store ptr %0, ptr %2, align 8, !tbaa !32
  %4 = load ptr, ptr @stderr, align 8, !tbaa !28
  %5 = load ptr, ptr %2, align 8, !tbaa !32
  %6 = getelementptr inbounds nuw %struct.path, ptr %5, i32 0, i32 2
  %7 = load i64, ptr %6, align 8, !tbaa !34
  %8 = call i32 (ptr, ptr, ...) @fprintf(ptr noundef %4, ptr noundef @.str.13, i64 noundef %7) #13
  call void @llvm.lifetime.start.p0(i64 8, ptr %3) #13
  store i64 0, ptr %3, align 8, !tbaa !20
  br label %9

9:                                                ; preds = %52, %1
  %10 = load i64, ptr %3, align 8, !tbaa !20
  %11 = load ptr, ptr %2, align 8, !tbaa !32
  %12 = getelementptr inbounds nuw %struct.path, ptr %11, i32 0, i32 2
  %13 = load i64, ptr %12, align 8, !tbaa !34
  %14 = icmp ult i64 %10, %13
  br i1 %14, label %16, label %15

15:                                               ; preds = %9
  call void @llvm.lifetime.end.p0(i64 8, ptr %3) #13
  br label %55

16:                                               ; preds = %9
  %17 = load ptr, ptr @stderr, align 8, !tbaa !28
  %18 = load i64, ptr %3, align 8, !tbaa !20
  %19 = load ptr, ptr %2, align 8, !tbaa !32
  %20 = getelementptr inbounds nuw %struct.path, ptr %19, i32 0, i32 3
  %21 = load ptr, ptr %20, align 8, !tbaa !54
  %22 = load i64, ptr %3, align 8, !tbaa !20
  %23 = getelementptr inbounds nuw %struct.boxf, ptr %21, i64 %22
  %24 = getelementptr inbounds nuw %struct.boxf, ptr %23, i32 0, i32 0
  %25 = getelementptr inbounds nuw %struct.pointf_s, ptr %24, i32 0, i32 0
  %26 = load double, ptr %25, align 8, !tbaa !65
  %27 = load ptr, ptr %2, align 8, !tbaa !32
  %28 = getelementptr inbounds nuw %struct.path, ptr %27, i32 0, i32 3
  %29 = load ptr, ptr %28, align 8, !tbaa !54
  %30 = load i64, ptr %3, align 8, !tbaa !20
  %31 = getelementptr inbounds nuw %struct.boxf, ptr %29, i64 %30
  %32 = getelementptr inbounds nuw %struct.boxf, ptr %31, i32 0, i32 0
  %33 = getelementptr inbounds nuw %struct.pointf_s, ptr %32, i32 0, i32 1
  %34 = load double, ptr %33, align 8, !tbaa !55
  %35 = load ptr, ptr %2, align 8, !tbaa !32
  %36 = getelementptr inbounds nuw %struct.path, ptr %35, i32 0, i32 3
  %37 = load ptr, ptr %36, align 8, !tbaa !54
  %38 = load i64, ptr %3, align 8, !tbaa !20
  %39 = getelementptr inbounds nuw %struct.boxf, ptr %37, i64 %38
  %40 = getelementptr inbounds nuw %struct.boxf, ptr %39, i32 0, i32 1
  %41 = getelementptr inbounds nuw %struct.pointf_s, ptr %40, i32 0, i32 0
  %42 = load double, ptr %41, align 8, !tbaa !66
  %43 = load ptr, ptr %2, align 8, !tbaa !32
  %44 = getelementptr inbounds nuw %struct.path, ptr %43, i32 0, i32 3
  %45 = load ptr, ptr %44, align 8, !tbaa !54
  %46 = load i64, ptr %3, align 8, !tbaa !20
  %47 = getelementptr inbounds nuw %struct.boxf, ptr %45, i64 %46
  %48 = getelementptr inbounds nuw %struct.boxf, ptr %47, i32 0, i32 1
  %49 = getelementptr inbounds nuw %struct.pointf_s, ptr %48, i32 0, i32 1
  %50 = load double, ptr %49, align 8, !tbaa !58
  %51 = call i32 (ptr, ptr, ...) @fprintf(ptr noundef %17, ptr noundef @.str.14, i64 noundef %18, double noundef %26, double noundef %34, double noundef %42, double noundef %50) #13
  br label %52

52:                                               ; preds = %16
  %53 = load i64, ptr %3, align 8, !tbaa !20
  %54 = add i64 %53, 1
  store i64 %54, ptr %3, align 8, !tbaa !20
  br label %9, !llvm.loop !127

55:                                               ; preds = %15
  %56 = load ptr, ptr @stderr, align 8, !tbaa !28
  %57 = load ptr, ptr %2, align 8, !tbaa !32
  %58 = getelementptr inbounds nuw %struct.path, ptr %57, i32 0, i32 0
  %59 = getelementptr inbounds nuw %struct.port, ptr %58, i32 0, i32 0
  %60 = getelementptr inbounds nuw %struct.pointf_s, ptr %59, i32 0, i32 0
  %61 = load double, ptr %60, align 8, !tbaa !74
  %62 = load ptr, ptr %2, align 8, !tbaa !32
  %63 = getelementptr inbounds nuw %struct.path, ptr %62, i32 0, i32 0
  %64 = getelementptr inbounds nuw %struct.port, ptr %63, i32 0, i32 0
  %65 = getelementptr inbounds nuw %struct.pointf_s, ptr %64, i32 0, i32 1
  %66 = load double, ptr %65, align 8, !tbaa !75
  %67 = load ptr, ptr %2, align 8, !tbaa !32
  %68 = getelementptr inbounds nuw %struct.path, ptr %67, i32 0, i32 0
  %69 = getelementptr inbounds nuw %struct.port, ptr %68, i32 0, i32 1
  %70 = load double, ptr %69, align 8, !tbaa !80
  %71 = load ptr, ptr %2, align 8, !tbaa !32
  %72 = getelementptr inbounds nuw %struct.path, ptr %71, i32 0, i32 0
  %73 = getelementptr inbounds nuw %struct.port, ptr %72, i32 0, i32 4
  %74 = load i8, ptr %73, align 1, !tbaa !79, !range !69, !noundef !70
  %75 = trunc i8 %74 to i1
  %76 = select i1 %75, ptr @.str.16, ptr @.str.17
  %77 = call i32 (ptr, ptr, ...) @fprintf(ptr noundef %56, ptr noundef @.str.15, double noundef %61, double noundef %66, double noundef %70, ptr noundef %76) #13
  %78 = load ptr, ptr @stderr, align 8, !tbaa !28
  %79 = load ptr, ptr %2, align 8, !tbaa !32
  %80 = getelementptr inbounds nuw %struct.path, ptr %79, i32 0, i32 1
  %81 = getelementptr inbounds nuw %struct.port, ptr %80, i32 0, i32 0
  %82 = getelementptr inbounds nuw %struct.pointf_s, ptr %81, i32 0, i32 0
  %83 = load double, ptr %82, align 8, !tbaa !76
  %84 = load ptr, ptr %2, align 8, !tbaa !32
  %85 = getelementptr inbounds nuw %struct.path, ptr %84, i32 0, i32 1
  %86 = getelementptr inbounds nuw %struct.port, ptr %85, i32 0, i32 0
  %87 = getelementptr inbounds nuw %struct.pointf_s, ptr %86, i32 0, i32 1
  %88 = load double, ptr %87, align 8, !tbaa !77
  %89 = load ptr, ptr %2, align 8, !tbaa !32
  %90 = getelementptr inbounds nuw %struct.path, ptr %89, i32 0, i32 1
  %91 = getelementptr inbounds nuw %struct.port, ptr %90, i32 0, i32 1
  %92 = load double, ptr %91, align 8, !tbaa !82
  %93 = load ptr, ptr %2, align 8, !tbaa !32
  %94 = getelementptr inbounds nuw %struct.path, ptr %93, i32 0, i32 1
  %95 = getelementptr inbounds nuw %struct.port, ptr %94, i32 0, i32 4
  %96 = load i8, ptr %95, align 1, !tbaa !81, !range !69, !noundef !70
  %97 = trunc i8 %96 to i1
  %98 = select i1 %97, ptr @.str.16, ptr @.str.17
  %99 = call i32 (ptr, ptr, ...) @fprintf(ptr noundef %78, ptr noundef @.str.18, double noundef %83, double noundef %88, double noundef %92, ptr noundef %98) #13
  ret void
}