; Function Attrs: cold nofree nounwind uwtable
define internal fastcc void @printpath(ptr noundef readonly captures(none) %0) unnamed_addr #13 {
  %2 = load ptr, ptr @stderr, align 8, !tbaa !14
  %3 = getelementptr inbounds nuw i8, ptr %0, i64 96
  %4 = load i64, ptr %3, align 8, !tbaa !25
  %5 = tail call i32 (ptr, ptr, ...) @fprintf(ptr noundef %2, ptr noundef nonnull @.str.13, i64 noundef %4) #21
  %6 = load i64, ptr %3, align 8, !tbaa !25
  %.not = icmp eq i64 %6, 0
  br i1 %.not, label %._crit_edge, label %.lr.ph

.lr.ph:                                           ; preds = %1
  %7 = getelementptr inbounds nuw i8, ptr %0, i64 104
  br label %31

._crit_edge:                                      ; preds = %31, %1
  %8 = load ptr, ptr @stderr, align 8, !tbaa !14
  %9 = load double, ptr %0, align 8, !tbaa !53
  %10 = getelementptr inbounds nuw i8, ptr %0, i64 8
  %11 = load double, ptr %10, align 8, !tbaa !54
  %12 = getelementptr inbounds nuw i8, ptr %0, i64 16
  %13 = load double, ptr %12, align 8, !tbaa !72
  %14 = getelementptr inbounds nuw i8, ptr %0, i64 33
  %15 = load i8, ptr %14, align 1, !tbaa !68, !range !69, !noundef !70
  %16 = trunc nuw i8 %15 to i1
  %17 = select i1 %16, ptr @.str.16, ptr @.str.17
  %18 = tail call i32 (ptr, ptr, ...) @fprintf(ptr noundef %8, ptr noundef nonnull @.str.15, double noundef %9, double noundef %11, double noundef %13, ptr noundef nonnull %17) #21
  %19 = load ptr, ptr @stderr, align 8, !tbaa !14
  %20 = getelementptr inbounds nuw i8, ptr %0, i64 48
  %21 = load double, ptr %20, align 8, !tbaa !55
  %22 = getelementptr inbounds nuw i8, ptr %0, i64 56
  %23 = load double, ptr %22, align 8, !tbaa !56
  %24 = getelementptr inbounds nuw i8, ptr %0, i64 64
  %25 = load double, ptr %24, align 8, !tbaa !74
  %26 = getelementptr inbounds nuw i8, ptr %0, i64 81
  %27 = load i8, ptr %26, align 1, !tbaa !73, !range !69, !noundef !70
  %28 = trunc nuw i8 %27 to i1
  %29 = select i1 %28, ptr @.str.16, ptr @.str.17
  %30 = tail call i32 (ptr, ptr, ...) @fprintf(ptr noundef %19, ptr noundef nonnull @.str.18, double noundef %21, double noundef %23, double noundef %25, ptr noundef nonnull %29) #21
  ret void

31:                                               ; preds = %.lr.ph, %31
  %.020 = phi i64 [ 0, %.lr.ph ], [ %43, %31 ]
  %32 = load ptr, ptr @stderr, align 8, !tbaa !14
  %33 = load ptr, ptr %7, align 8, !tbaa !43
  %34 = getelementptr inbounds nuw %struct.boxf, ptr %33, i64 %.020
  %35 = load double, ptr %34, align 8, !tbaa !44
  %36 = getelementptr inbounds nuw i8, ptr %34, i64 8
  %37 = load double, ptr %36, align 8, !tbaa !47
  %38 = getelementptr inbounds nuw i8, ptr %34, i64 16
  %39 = load double, ptr %38, align 8, !tbaa !46
  %40 = getelementptr inbounds nuw i8, ptr %34, i64 24
  %41 = load double, ptr %40, align 8, !tbaa !48
  %42 = tail call i32 (ptr, ptr, ...) @fprintf(ptr noundef %32, ptr noundef nonnull @.str.14, i64 noundef %.020, double noundef %35, double noundef %37, double noundef %39, double noundef %41) #21
  %43 = add nuw i64 %.020, 1
  %44 = load i64, ptr %3, align 8, !tbaa !25
  %45 = icmp ult i64 %43, %44
  br i1 %45, label %31, label %._crit_edge, !llvm.loop !134
}